; Function Attrs: nounwind uwtable
define dso_local range(i32 -1, 1) i32 @strbuf_getcwd(ptr noundef captures(none) %0) local_unnamed_addr #3 {
  %2 = load i64, ptr %0, align 8, !tbaa !15
  %3 = getelementptr inbounds nuw i8, ptr %0, i64 8
  %4 = load i64, ptr %3, align 8, !tbaa !16
  %5 = icmp ugt i64 %4, -130
  br i1 %5, label %._crit_edge, label %.lr.ph

.lr.ph:                                           ; preds = %1
  %6 = getelementptr inbounds nuw i8, ptr %0, i64 16
  br label %7

._crit_edge:                                      ; preds = %38, %1
  tail call void (ptr, ...) @die(ptr noundef nonnull @.str) #24
  unreachable

7:                                                ; preds = %.lr.ph, %38
  %8 = phi i64 [ %4, %.lr.ph ], [ %40, %38 ]
  %.025 = phi i64 [ 128, %.lr.ph ], [ %39, %38 ]
  %9 = phi i64 [ %2, %.lr.ph ], [ %.pr, %38 ]
  %.not.i26 = icmp eq i64 %9, 0
  br i1 %.not.i26, label %10, label %._crit_edge29

._crit_edge29:                                    ; preds = %7
  %.pre27.pre.pre = load ptr, ptr %6, align 8, !tbaa !12
  br label %11

10:                                               ; preds = %7
  store ptr null, ptr %6, align 8, !tbaa !12
  br label %11

11:                                               ; preds = %._crit_edge29, %10
  %.pre27.pre = phi ptr [ %.pre27.pre.pre, %._crit_edge29 ], [ null, %10 ]
  %12 = or disjoint i64 %.025, 1
  %13 = add i64 %12, %8
  %14 = icmp ugt i64 %13, %9
  br i1 %14, label %st_mult.exit.i, label %19

st_mult.exit.i:                                   ; preds = %11
  %15 = mul i64 %9, 3
  %16 = add i64 %15, 48
  %17 = lshr i64 %16, 1
  %..i = tail call i64 @llvm.umax.i64(i64 %17, i64 %13)
  store i64 %..i, ptr %0, align 8, !tbaa !15
  %18 = tail call ptr @xrealloc(ptr noundef %.pre27.pre, i64 noundef %..i) #25
  store ptr %18, ptr %6, align 8, !tbaa !12
  br label %19

19:                                               ; preds = %st_mult.exit.i, %11
  %.pre27 = phi ptr [ %18, %st_mult.exit.i ], [ %.pre27.pre, %11 ]
  br i1 %.not.i26, label %20, label %strbuf_grow.exit

20:                                               ; preds = %19
  store i8 0, ptr %.pre27, align 1, !tbaa !4
  %.pre = load ptr, ptr %6, align 8, !tbaa !12
  br label %strbuf_grow.exit

strbuf_grow.exit:                                 ; preds = %19, %20
  %21 = phi ptr [ %.pre27, %19 ], [ %.pre, %20 ]
  %22 = load i64, ptr %0, align 8, !tbaa !15
  %23 = tail call ptr @getcwd(ptr noundef %21, i64 noundef %22) #25
  %.not = icmp eq ptr %23, null
  br i1 %.not, label %33, label %24

24:                                               ; preds = %strbuf_grow.exit
  %25 = load ptr, ptr %6, align 8, !tbaa !12
  %26 = tail call i64 @strlen(ptr noundef nonnull dereferenceable(1) %25) #26
  %27 = load i64, ptr %0, align 8, !tbaa !15
  %spec.select.i = tail call i64 @llvm.usub.sat.i64(i64 %27, i64 1)
  %28 = icmp ugt i64 %26, %spec.select.i
  br i1 %28, label %29, label %30

29:                                               ; preds = %24
  tail call void (ptr, i32, ptr, ...) @BUG_fl(ptr noundef nonnull @.str.28, i32 noundef 167, ptr noundef nonnull @.str.29) #24
  unreachable

30:                                               ; preds = %24
  store i64 %26, ptr %3, align 8, !tbaa !16
  %.not9.i = icmp eq ptr %25, @strbuf_slopbuf
  br i1 %.not9.i, label %strbuf_setlen.exit, label %31

31:                                               ; preds = %30
  %32 = getelementptr inbounds nuw i8, ptr %25, i64 %26
  store i8 0, ptr %32, align 1, !tbaa !4
  br label %strbuf_setlen.exit

33:                                               ; preds = %strbuf_grow.exit
  %34 = tail call ptr @__errno_location() #27
  %35 = load i32, ptr %34, align 4, !tbaa !33
  %36 = icmp eq i32 %35, 13
  %37 = icmp ult i64 %.025, 4096
  %or.cond = and i1 %37, %36
  %.not14 = icmp eq i32 %35, 34
  %or.cond15 = or i1 %.not14, %or.cond
  br i1 %or.cond15, label %38, label %43

38:                                               ; preds = %33
  %39 = shl i64 %.025, 1
  %.pr = load i64, ptr %0, align 8, !tbaa !15
  %40 = load i64, ptr %3, align 8, !tbaa !16
  %41 = sub nuw nsw i64 -2, %39
  %42 = icmp ult i64 %41, %40
  br i1 %42, label %._crit_edge, label %7

43:                                               ; preds = %33
  %44 = icmp eq i64 %2, 0
  br i1 %44, label %45, label %49

45:                                               ; preds = %43
  %46 = load i64, ptr %0, align 8, !tbaa !15
  %.not.i16 = icmp eq i64 %46, 0
  br i1 %.not.i16, label %strbuf_setlen.exit, label %47

47:                                               ; preds = %45
  %48 = load ptr, ptr %6, align 8, !tbaa !12
  tail call void @free(ptr noundef %48) #25
  tail call void @llvm.memcpy.p0.p0.i64(ptr noundef nonnull align 8 dereferenceable(24) %0, ptr noundef nonnull align 8 dereferenceable(24) @__const.strbuf_addftime.munged_fmt, i64 24, i1 false)
  br label %strbuf_setlen.exit

49:                                               ; preds = %43
  store i64 0, ptr %3, align 8, !tbaa !16
  %50 = load ptr, ptr %6, align 8, !tbaa !12
  %.not9.i18 = icmp eq ptr %50, @strbuf_slopbuf
  br i1 %.not9.i18, label %strbuf_setlen.exit, label %51

51:                                               ; preds = %49
  store i8 0, ptr %50, align 1, !tbaa !4
  br label %strbuf_setlen.exit

strbuf_setlen.exit:                               ; preds = %51, %49, %47, %45, %31, %30
  %.013 = phi i32 [ 0, %30 ], [ 0, %31 ], [ -1, %45 ], [ -1, %47 ], [ -1, %49 ], [ -1, %51 ]
  ret i32 %.013
}